target datalayout = "e-m:e-p270:32:32-p271:32:32-p272:64:64-i64:64-i128:128-f80:128-n8:16:32:64-S128"
target triple = "x86_64-pc-linux-gnu"

%struct.AVCodecContext = type { ptr, i32, i32, ptr, i32, i32, ptr, ptr, ptr, i64, i32, i32, ptr, i32, %struct.AVRational, %struct.AVRational, %struct.AVRational, i32, i32, i32, i32, i32, %struct.AVRational, i32, i32, i32, i32, i32, i32, i32, i32, i32, i32, i32, ptr, ptr, i32, float, float, float, float, float, float, float, float, float, i32, i32, i32, i32, i32, i32, i32, i32, i32, i32, i32, i32, ptr, ptr, ptr, i32, i32, i32, i32, i32, i32, i32, i32, i32, i32, %struct.AVChannelLayout, i32, i32, i32, i32, i32, i32, i32, i32, ptr, i32, i32, i32, float, float, i32, i32, i32, i32, i32, ptr, i64, i64, float, float, i32, i32, ptr, ptr, i32, i32, i32, i32, i32, ptr, ptr, ptr, ptr, i32, i32, [8 x i64], i32, i32, i32, i32, i32, i32, i32, ptr, ptr, i32, i32, i32, i32, i32, i32, i32, i32, i32, i32, ptr, ptr, i32, i32, ptr, ptr, ptr, ptr, i32, i32, i64, i32, i32, i64, ptr, i64, ptr, i32, ptr, i32 }
%struct.AVRational = type { i32, i32 }
%struct.AVChannelLayout = type { i32, i32, %union.anon.0, ptr }
%union.anon.0 = type { i64 }
%struct.HapContext = type { ptr, %struct.GetByteContext, i32, i32, i32, i32, ptr, ptr, ptr, i64, i64, i32, i32, %struct.TextureDSPThreadContext, [2 x %struct.TextureDSPThreadContext] }
%struct.GetByteContext = type { ptr, ptr, ptr }
%struct.TextureDSPThreadContext = type { %union.anon.1, i64, i32, i32, %union.anon.2, i32, i32, i32, ptr }
%union.anon.1 = type { ptr }
%union.anon.2 = type { ptr }
%struct.HapChunk = type { i32, i32, i64, i32, i64 }

@.str.12 = private unnamed_addr constant [30 x i8] c"Assertion %s failed at %s:%d\0A\00", align 1
@.str.13 = private unnamed_addr constant [14 x i8] c"buf_size >= 0\00", align 1
@.str.14 = private unnamed_addr constant [24 x i8] c"libavcodec/bytestream.h\00", align 1
@.str.20 = private unnamed_addr constant [25 x i8] c"Snappy uncompress error\0A\00", align 1

; Function Attrs: alwaysinline nounwind uwtable
define internal i32 @bytestream2_get_buffer(ptr noundef %0, ptr noundef %1, i32 noundef %2) #5 {
  %4 = alloca ptr, align 8
  %5 = alloca ptr, align 8
  %6 = alloca i32, align 4
  %7 = alloca i32, align 4
  store ptr %0, ptr %4, align 8, !tbaa !77
  store ptr %1, ptr %5, align 8, !tbaa !45
  store i32 %2, ptr %6, align 4, !tbaa !33
  call void @llvm.lifetime.start.p0(i64 4, ptr %7) #10
  %8 = load ptr, ptr %4, align 8, !tbaa !77
  %9 = getelementptr inbounds nuw %struct.GetByteContext, ptr %8, i32 0, i32 1
  %10 = load ptr, ptr %9, align 8, !tbaa !81
  %11 = load ptr, ptr %4, align 8, !tbaa !77
  %12 = getelementptr inbounds nuw %struct.GetByteContext, ptr %11, i32 0, i32 0
  %13 = load ptr, ptr %12, align 8, !tbaa !79
  %14 = ptrtoint ptr %10 to i64
  %15 = ptrtoint ptr %13 to i64
  %16 = sub i64 %14, %15
  %17 = load i32, ptr %6, align 4, !tbaa !33
  %18 = zext i32 %17 to i64
  %19 = icmp sgt i64 %16, %18
  br i1 %19, label %20, label %23

20:                                               ; preds = %3
  %21 = load i32, ptr %6, align 4, !tbaa !33
  %22 = zext i32 %21 to i64
  br label %33

23:                                               ; preds = %3
  %24 = load ptr, ptr %4, align 8, !tbaa !77
  %25 = getelementptr inbounds nuw %struct.GetByteContext, ptr %24, i32 0, i32 1
  %26 = load ptr, ptr %25, align 8, !tbaa !81
  %27 = load ptr, ptr %4, align 8, !tbaa !77
  %28 = getelementptr inbounds nuw %struct.GetByteContext, ptr %27, i32 0, i32 0
  %29 = load ptr, ptr %28, align 8, !tbaa !79
  %30 = ptrtoint ptr %26 to i64
  %31 = ptrtoint ptr %29 to i64
  %32 = sub i64 %30, %31
  br label %33

33:                                               ; preds = %23, %20
  %34 = phi i64 [ %22, %20 ], [ %32, %23 ]
  %35 = trunc i64 %34 to i32
  store i32 %35, ptr %7, align 4, !tbaa !33
  %36 = load ptr, ptr %5, align 8, !tbaa !45
  %37 = load ptr, ptr %4, align 8, !tbaa !77
  %38 = getelementptr inbounds nuw %struct.GetByteContext, ptr %37, i32 0, i32 0
  %39 = load ptr, ptr %38, align 8, !tbaa !79
  %40 = load i32, ptr %7, align 4, !tbaa !33
  %41 = zext i32 %40 to i64
  call void @llvm.memcpy.p0.p0.i64(ptr align 1 %36, ptr align 1 %39, i64 %41, i1 false)
  %42 = load i32, ptr %7, align 4, !tbaa !33
  %43 = load ptr, ptr %4, align 8, !tbaa !77
  %44 = getelementptr inbounds nuw %struct.GetByteContext, ptr %43, i32 0, i32 0
  %45 = load ptr, ptr %44, align 8, !tbaa !79
  %46 = zext i32 %42 to i64
  %47 = getelementptr inbounds nuw i8, ptr %45, i64 %46
  store ptr %47, ptr %44, align 8, !tbaa !79
  %48 = load i32, ptr %7, align 4, !tbaa !33
  call void @llvm.lifetime.end.p0(i64 4, ptr %7) #10
  ret i32 %48
}

; Function Attrs: alwaysinline nounwind uwtable
define internal void @bytestream2_init(ptr noundef %0, ptr noundef %1, i32 noundef %2) #5 {
  %4 = alloca ptr, align 8
  %5 = alloca ptr, align 8
  %6 = alloca i32, align 4
  store ptr %0, ptr %4, align 8, !tbaa !77
  store ptr %1, ptr %5, align 8, !tbaa !45
  store i32 %2, ptr %6, align 4, !tbaa !33
  br label %7

7:                                                ; preds = %3
  %8 = load i32, ptr %6, align 4, !tbaa !33
  %9 = icmp sge i32 %8, 0
  br i1 %9, label %11, label %10

10:                                               ; preds = %7
  call void (ptr, i32, ptr, ...) @av_log(ptr noundef null, i32 noundef 0, ptr noundef @.str.12, ptr noundef @.str.13, ptr noundef @.str.14, i32 noundef 141)
  call void @abort() #13
  unreachable

11:                                               ; preds = %7
  br label %12

12:                                               ; preds = %11
  %13 = load ptr, ptr %5, align 8, !tbaa !45
  %14 = load ptr, ptr %4, align 8, !tbaa !77
  %15 = getelementptr inbounds nuw %struct.GetByteContext, ptr %14, i32 0, i32 0
  store ptr %13, ptr %15, align 8, !tbaa !79
  %16 = load ptr, ptr %5, align 8, !tbaa !45
  %17 = load ptr, ptr %4, align 8, !tbaa !77
  %18 = getelementptr inbounds nuw %struct.GetByteContext, ptr %17, i32 0, i32 2
  store ptr %16, ptr %18, align 8, !tbaa !80
  %19 = load ptr, ptr %5, align 8, !tbaa !45
  %20 = load i32, ptr %6, align 4, !tbaa !33
  %21 = sext i32 %20 to i64
  %22 = getelementptr inbounds i8, ptr %19, i64 %21
  %23 = load ptr, ptr %4, align 8, !tbaa !77
  %24 = getelementptr inbounds nuw %struct.GetByteContext, ptr %23, i32 0, i32 1
  store ptr %22, ptr %24, align 8, !tbaa !81
  ret void
}

; Function Attrs: nounwind uwtable
define internal i32 @decompress_chunks_thread(ptr noundef %0, ptr noundef %1, i32 noundef %2, i32 noundef %3) #1 {
  %5 = alloca i32, align 4
  %6 = alloca ptr, align 8
  %7 = alloca ptr, align 8
  %8 = alloca i32, align 4
  %9 = alloca i32, align 4
  %10 = alloca ptr, align 8
  %11 = alloca ptr, align 8
  %12 = alloca %struct.GetByteContext, align 8
  %13 = alloca ptr, align 8
  %14 = alloca i32, align 4
  %15 = alloca i64, align 8
  %16 = alloca i32, align 4
  store ptr %0, ptr %6, align 8, !tbaa !4
  store ptr %1, ptr %7, align 8, !tbaa !93
  store i32 %2, ptr %8, align 4, !tbaa !33
  store i32 %3, ptr %9, align 4, !tbaa !33
  call void @llvm.lifetime.start.p0(i64 8, ptr %10) #10
  %17 = load ptr, ptr %6, align 8, !tbaa !4
  %18 = getelementptr inbounds nuw %struct.AVCodecContext, ptr %17, i32 0, i32 6
  %19 = load ptr, ptr %18, align 8, !tbaa !9
  store ptr %19, ptr %10, align 8, !tbaa !29
  call void @llvm.lifetime.start.p0(i64 8, ptr %11) #10
  %20 = load ptr, ptr %10, align 8, !tbaa !29
  %21 = getelementptr inbounds nuw %struct.HapContext, ptr %20, i32 0, i32 6
  %22 = load ptr, ptr %21, align 8, !tbaa !82
  %23 = load i32, ptr %8, align 4, !tbaa !33
  %24 = sext i32 %23 to i64
  %25 = getelementptr inbounds %struct.HapChunk, ptr %22, i64 %24
  store ptr %25, ptr %11, align 8, !tbaa !87
  call void @llvm.lifetime.start.p0(i64 24, ptr %12) #10
  call void @llvm.lifetime.start.p0(i64 8, ptr %13) #10
  %26 = load ptr, ptr %10, align 8, !tbaa !29
  %27 = getelementptr inbounds nuw %struct.HapContext, ptr %26, i32 0, i32 8
  %28 = load ptr, ptr %27, align 8, !tbaa !67
  %29 = load ptr, ptr %11, align 8, !tbaa !87
  %30 = getelementptr inbounds nuw %struct.HapChunk, ptr %29, i32 0, i32 3
  %31 = load i32, ptr %30, align 8, !tbaa !88
  %32 = sext i32 %31 to i64
  %33 = getelementptr inbounds i8, ptr %28, i64 %32
  store ptr %33, ptr %13, align 8, !tbaa !45
  %34 = load ptr, ptr %10, align 8, !tbaa !29
  %35 = getelementptr inbounds nuw %struct.HapContext, ptr %34, i32 0, i32 1
  %36 = getelementptr inbounds nuw %struct.GetByteContext, ptr %35, i32 0, i32 0
  %37 = load ptr, ptr %36, align 8, !tbaa !65
  %38 = load ptr, ptr %11, align 8, !tbaa !87
  %39 = getelementptr inbounds nuw %struct.HapChunk, ptr %38, i32 0, i32 1
  %40 = load i32, ptr %39, align 4, !tbaa !85
  %41 = zext i32 %40 to i64
  %42 = getelementptr inbounds nuw i8, ptr %37, i64 %41
  %43 = load ptr, ptr %11, align 8, !tbaa !87
  %44 = getelementptr inbounds nuw %struct.HapChunk, ptr %43, i32 0, i32 2
  %45 = load i64, ptr %44, align 8, !tbaa !86
  %46 = trunc i64 %45 to i32
  call void @bytestream2_init(ptr noundef %12, ptr noundef %42, i32 noundef %46)
  %47 = load ptr, ptr %11, align 8, !tbaa !87
  %48 = getelementptr inbounds nuw %struct.HapChunk, ptr %47, i32 0, i32 0
  %49 = load i32, ptr %48, align 8, !tbaa !83
  %50 = icmp eq i32 %49, 176
  br i1 %50, label %51, label %66

51:                                               ; preds = %4
  call void @llvm.lifetime.start.p0(i64 4, ptr %14) #10
  call void @llvm.lifetime.start.p0(i64 8, ptr %15) #10
  %52 = load ptr, ptr %10, align 8, !tbaa !29
  %53 = getelementptr inbounds nuw %struct.HapContext, ptr %52, i32 0, i32 9
  %54 = load i64, ptr %53, align 8, !tbaa !63
  store i64 %54, ptr %15, align 8, !tbaa !89
  %55 = load ptr, ptr %13, align 8, !tbaa !45
  %56 = call i32 @ff_snappy_uncompress(ptr noundef %12, ptr noundef %55, ptr noundef %15)
  store i32 %56, ptr %14, align 4, !tbaa !33
  %57 = load i32, ptr %14, align 4, !tbaa !33
  %58 = icmp slt i32 %57, 0
  br i1 %58, label %59, label %62

59:                                               ; preds = %51
  %60 = load ptr, ptr %6, align 8, !tbaa !4
  call void (ptr, i32, ptr, ...) @av_log(ptr noundef %60, i32 noundef 16, ptr noundef @.str.20)
  %61 = load i32, ptr %14, align 4, !tbaa !33
  store i32 %61, ptr %5, align 4
  store i32 1, ptr %16, align 4
  br label %63

62:                                               ; preds = %51
  store i32 0, ptr %16, align 4
  br label %63

63:                                               ; preds = %62, %59
  call void @llvm.lifetime.end.p0(i64 8, ptr %15) #10
  call void @llvm.lifetime.end.p0(i64 4, ptr %14) #10
  %64 = load i32, ptr %16, align 4
  switch i32 %64, label %80 [
    i32 0, label %65
  ]

65:                                               ; preds = %63
  br label %79

66:                                               ; preds = %4
  %67 = load ptr, ptr %11, align 8, !tbaa !87
  %68 = getelementptr inbounds nuw %struct.HapChunk, ptr %67, i32 0, i32 0
  %69 = load i32, ptr %68, align 8, !tbaa !83
  %70 = icmp eq i32 %69, 160
  br i1 %70, label %71, label %78

71:                                               ; preds = %66
  %72 = load ptr, ptr %13, align 8, !tbaa !45
  %73 = load ptr, ptr %11, align 8, !tbaa !87
  %74 = getelementptr inbounds nuw %struct.HapChunk, ptr %73, i32 0, i32 2
  %75 = load i64, ptr %74, align 8, !tbaa !86
  %76 = trunc i64 %75 to i32
  %77 = call i32 @bytestream2_get_buffer(ptr noundef %12, ptr noundef %72, i32 noundef %76)
  br label %78

78:                                               ; preds = %71, %66
  br label %79

79:                                               ; preds = %78, %65
  store i32 0, ptr %5, align 4
  store i32 1, ptr %16, align 4
  br label %80

80:                                               ; preds = %79, %63
  call void @llvm.lifetime.end.p0(i64 8, ptr %13) #10
  call void @llvm.lifetime.end.p0(i64 24, ptr %12) #10
  call void @llvm.lifetime.end.p0(i64 8, ptr %11) #10
  call void @llvm.lifetime.end.p0(i64 8, ptr %10) #10
  %81 = load i32, ptr %5, align 4
  ret i32 %81
}