; Function Attrs: nounwind uwtable
define internal range(i32 -2147483648, 1) i32 @decompress_chunks_thread(ptr noundef %0, ptr readnone captures(none) %1, i32 noundef %2, i32 %3) #1 {
  %5 = alloca %struct.GetByteContext, align 8
  %6 = alloca i64, align 8
  %7 = getelementptr inbounds nuw i8, ptr %0, i64 32
  %8 = load ptr, ptr %7, align 8, !tbaa !4
  %9 = getelementptr inbounds nuw i8, ptr %8, i64 48
  %10 = load ptr, ptr %9, align 8, !tbaa !56
  %11 = sext i32 %2 to i64
  %12 = getelementptr inbounds %struct.HapChunk, ptr %10, i64 %11
  call void @llvm.lifetime.start.p0(i64 24, ptr nonnull %5) #9
  %13 = getelementptr inbounds nuw i8, ptr %8, i64 64
  %14 = load ptr, ptr %13, align 8, !tbaa !77
  %15 = getelementptr inbounds nuw i8, ptr %12, i64 16
  %16 = load i32, ptr %15, align 8, !tbaa !72
  %17 = sext i32 %16 to i64
  %18 = getelementptr inbounds i8, ptr %14, i64 %17
  %19 = getelementptr inbounds nuw i8, ptr %8, i64 8
  %20 = load ptr, ptr %19, align 8, !tbaa !76
  %21 = getelementptr inbounds nuw i8, ptr %12, i64 4
  %22 = load i32, ptr %21, align 4, !tbaa !59
  %23 = zext i32 %22 to i64
  %24 = getelementptr inbounds nuw i8, ptr %20, i64 %23
  %25 = getelementptr inbounds nuw i8, ptr %12, i64 8
  %26 = load i64, ptr %25, align 8, !tbaa !61
  %27 = and i64 %26, 2147483648
  %28 = icmp eq i64 %27, 0
  br i1 %28, label %bytestream2_init.exit, label %29

29:                                               ; preds = %4
  tail call void (ptr, i32, ptr, ...) @av_log(ptr noundef null, i32 noundef 0, ptr noundef nonnull @.str.12, ptr noundef nonnull @.str.13, ptr noundef nonnull @.str.14, i32 noundef 141) #9
  tail call void @abort() #10
  unreachable

bytestream2_init.exit:                            ; preds = %4
  store ptr %24, ptr %5, align 8, !tbaa !52
  %30 = getelementptr inbounds nuw i8, ptr %5, i64 16
  store ptr %24, ptr %30, align 8, !tbaa !53
  %31 = and i64 %26, 2147483647
  %32 = getelementptr inbounds nuw i8, ptr %24, i64 %31
  %33 = getelementptr inbounds nuw i8, ptr %5, i64 8
  store ptr %32, ptr %33, align 8, !tbaa !54
  %34 = load i32, ptr %12, align 8, !tbaa !57
  switch i32 %34, label %42 [
    i32 176, label %35
    i32 160, label %41
  ]

35:                                               ; preds = %bytestream2_init.exit
  call void @llvm.lifetime.start.p0(i64 8, ptr nonnull %6) #9
  %36 = getelementptr inbounds nuw i8, ptr %8, i64 72
  %37 = load i64, ptr %36, align 8, !tbaa !71
  store i64 %37, ptr %6, align 8, !tbaa !85
  %38 = call i32 @ff_snappy_uncompress(ptr noundef nonnull %5, ptr noundef %18, ptr noundef nonnull %6) #9
  %39 = icmp sgt i32 %38, -1
  br i1 %39, label %.critedge, label %40

40:                                               ; preds = %35
  call void (ptr, i32, ptr, ...) @av_log(ptr noundef nonnull %0, i32 noundef 16, ptr noundef nonnull @.str.20) #9
  call void @llvm.lifetime.end.p0(i64 8, ptr nonnull %6) #9
  br label %42

41:                                               ; preds = %bytestream2_init.exit
  tail call void @llvm.memcpy.p0.p0.i64(ptr align 1 %18, ptr align 1 %24, i64 %31, i1 false)
  br label %42

.critedge:                                        ; preds = %35
  call void @llvm.lifetime.end.p0(i64 8, ptr nonnull %6) #9
  br label %42

42:                                               ; preds = %41, %.critedge, %bytestream2_init.exit, %40
  %.1 = phi i32 [ %38, %40 ], [ 0, %bytestream2_init.exit ], [ 0, %.critedge ], [ 0, %41 ]
  call void @llvm.lifetime.end.p0(i64 24, ptr nonnull %5) #9
  ret i32 %.1
}